target datalayout = "e-m:e-p270:32:32-p271:32:32-p272:64:64-i64:64-i128:128-f80:128-n8:16:32:64-S128"
target triple = "x86_64-pc-linux-gnu"

%struct.Vec_Ptr_t_ = type { i32, i32, ptr }
%struct.Gia_ParLlb_t_ = type { i32, i32, i32, i32, i32, i32, i32, i32, i32, i32, i32, i32, i32, i32, i32, i32, i32, i32, i32, i32, i32, i32, i32, i64, i32 }
%struct.Vec_Vec_t_ = type { i32, i32, ptr }

; Function Attrs: inlinehint nounwind uwtable
define internal void @Vec_PtrFree(ptr noundef %0) #2 {
  %2 = alloca ptr, align 8
  store ptr %0, ptr %2, align 8, !tbaa !8
  %3 = load ptr, ptr %2, align 8, !tbaa !8
  %4 = getelementptr inbounds nuw %struct.Vec_Ptr_t_, ptr %3, i32 0, i32 2
  %5 = load ptr, ptr %4, align 8, !tbaa !17
  %6 = icmp ne ptr %5, null
  br i1 %6, label %7, label %13

7:                                                ; preds = %1
  %8 = load ptr, ptr %2, align 8, !tbaa !8
  %9 = getelementptr inbounds nuw %struct.Vec_Ptr_t_, ptr %8, i32 0, i32 2
  %10 = load ptr, ptr %9, align 8, !tbaa !17
  call void @free(ptr noundef %10) #10
  %11 = load ptr, ptr %2, align 8, !tbaa !8
  %12 = getelementptr inbounds nuw %struct.Vec_Ptr_t_, ptr %11, i32 0, i32 2
  store ptr null, ptr %12, align 8, !tbaa !17
  br label %14

13:                                               ; preds = %1
  br label %14

14:                                               ; preds = %13, %7
  %15 = load ptr, ptr %2, align 8, !tbaa !8
  %16 = icmp ne ptr %15, null
  br i1 %16, label %17, label %19

17:                                               ; preds = %14
  %18 = load ptr, ptr %2, align 8, !tbaa !8
  call void @free(ptr noundef %18) #10
  store ptr null, ptr %2, align 8, !tbaa !8
  br label %20

19:                                               ; preds = %14
  br label %20

20:                                               ; preds = %19, %17
  ret void
}

; Function Attrs: inlinehint nounwind uwtable
define internal ptr @Vec_VecEntry(ptr noundef %0, i32 noundef %1) #2 {
  %3 = alloca ptr, align 8
  %4 = alloca i32, align 4
  store ptr %0, ptr %3, align 8, !tbaa !125
  store i32 %1, ptr %4, align 4, !tbaa !10
  %5 = load ptr, ptr %3, align 8, !tbaa !125
  %6 = getelementptr inbounds nuw %struct.Vec_Vec_t_, ptr %5, i32 0, i32 2
  %7 = load ptr, ptr %6, align 8, !tbaa !137
  %8 = load i32, ptr %4, align 4, !tbaa !10
  %9 = sext i32 %8 to i64
  %10 = getelementptr inbounds ptr, ptr %7, i64 %9
  %11 = load ptr, ptr %10, align 8, !tbaa !18
  ret ptr %11
}

; Function Attrs: inlinehint nounwind uwtable
define internal i32 @Vec_VecSize(ptr noundef %0) #2 {
  %2 = alloca ptr, align 8
  store ptr %0, ptr %2, align 8, !tbaa !125
  %3 = load ptr, ptr %2, align 8, !tbaa !125
  %4 = getelementptr inbounds nuw %struct.Vec_Vec_t_, ptr %3, i32 0, i32 1
  %5 = load i32, ptr %4, align 4, !tbaa !135
  ret i32 %5
}

; Function Attrs: inlinehint nounwind uwtable
define internal void @Vec_VecFree(ptr noundef %0) #2 {
  %2 = alloca ptr, align 8
  %3 = alloca ptr, align 8
  %4 = alloca i32, align 4
  store ptr %0, ptr %2, align 8, !tbaa !125
  call void @llvm.lifetime.start.p0(i64 8, ptr %3) #10
  call void @llvm.lifetime.start.p0(i64 4, ptr %4) #10
  store i32 0, ptr %4, align 4, !tbaa !10
  br label %5

5:                                                ; preds = %22, %1
  %6 = load i32, ptr %4, align 4, !tbaa !10
  %7 = load ptr, ptr %2, align 8, !tbaa !125
  %8 = call i32 @Vec_VecSize(ptr noundef %7)
  %9 = icmp slt i32 %6, %8
  br i1 %9, label %10, label %14

10:                                               ; preds = %5
  %11 = load ptr, ptr %2, align 8, !tbaa !125
  %12 = load i32, ptr %4, align 4, !tbaa !10
  %13 = call ptr @Vec_VecEntry(ptr noundef %11, i32 noundef %12)
  store ptr %13, ptr %3, align 8, !tbaa !8
  br label %14

14:                                               ; preds = %10, %5
  %15 = phi i1 [ false, %5 ], [ true, %10 ]
  br i1 %15, label %16, label %25

16:                                               ; preds = %14
  %17 = load ptr, ptr %3, align 8, !tbaa !8
  %18 = icmp ne ptr %17, null
  br i1 %18, label %19, label %21

19:                                               ; preds = %16
  %20 = load ptr, ptr %3, align 8, !tbaa !8
  call void @Vec_PtrFree(ptr noundef %20)
  br label %21

21:                                               ; preds = %19, %16
  br label %22

22:                                               ; preds = %21
  %23 = load i32, ptr %4, align 4, !tbaa !10
  %24 = add nsw i32 %23, 1
  store i32 %24, ptr %4, align 4, !tbaa !10
  br label %5, !llvm.loop !126

25:                                               ; preds = %14
  %26 = load ptr, ptr %2, align 8, !tbaa !125
  call void @Vec_PtrFree(ptr noundef %26)
  call void @llvm.lifetime.end.p0(i64 4, ptr %4) #10
  call void @llvm.lifetime.end.p0(i64 8, ptr %3) #10
  ret void
}

; Function Attrs: nounwind uwtable
define void @Llb_BddSetDefaultParams(ptr noundef %0) #0 {
  %2 = alloca ptr, align 8
  store ptr %0, ptr %2, align 8, !tbaa !102
  %3 = load ptr, ptr %2, align 8, !tbaa !102
  call void @llvm.memset.p0.i64(ptr align 8 %3, i8 0, i64 112, i1 false)
  %4 = load ptr, ptr %2, align 8, !tbaa !102
  %5 = getelementptr inbounds nuw %struct.Gia_ParLlb_t_, ptr %4, i32 0, i32 0
  store i32 1000000, ptr %5, align 8, !tbaa !104
  %6 = load ptr, ptr %2, align 8, !tbaa !102
  %7 = getelementptr inbounds nuw %struct.Gia_ParLlb_t_, ptr %6, i32 0, i32 1
  store i32 10000000, ptr %7, align 4, !tbaa !106
  %8 = load ptr, ptr %2, align 8, !tbaa !102
  %9 = getelementptr inbounds nuw %struct.Gia_ParLlb_t_, ptr %8, i32 0, i32 2
  store i32 20, ptr %9, align 8, !tbaa !107
  %10 = load ptr, ptr %2, align 8, !tbaa !102
  %11 = getelementptr inbounds nuw %struct.Gia_ParLlb_t_, ptr %10, i32 0, i32 3
  store i32 0, ptr %11, align 4, !tbaa !108
  %12 = load ptr, ptr %2, align 8, !tbaa !102
  %13 = getelementptr inbounds nuw %struct.Gia_ParLlb_t_, ptr %12, i32 0, i32 4
  store i32 0, ptr %13, align 8, !tbaa !109
  %14 = load ptr, ptr %2, align 8, !tbaa !102
  %15 = getelementptr inbounds nuw %struct.Gia_ParLlb_t_, ptr %14, i32 0, i32 5
  store i32 0, ptr %15, align 4, !tbaa !110
  %16 = load ptr, ptr %2, align 8, !tbaa !102
  %17 = getelementptr inbounds nuw %struct.Gia_ParLlb_t_, ptr %16, i32 0, i32 6
  store i32 100, ptr %17, align 8, !tbaa !111
  %18 = load ptr, ptr %2, align 8, !tbaa !102
  %19 = getelementptr inbounds nuw %struct.Gia_ParLlb_t_, ptr %18, i32 0, i32 7
  store i32 30, ptr %19, align 4, !tbaa !112
  %20 = load ptr, ptr %2, align 8, !tbaa !102
  %21 = getelementptr inbounds nuw %struct.Gia_ParLlb_t_, ptr %20, i32 0, i32 10
  store i32 1, ptr %21, align 8, !tbaa !113
  %22 = load ptr, ptr %2, align 8, !tbaa !102
  %23 = getelementptr inbounds nuw %struct.Gia_ParLlb_t_, ptr %22, i32 0, i32 11
  store i32 0, ptr %23, align 4, !tbaa !114
  %24 = load ptr, ptr %2, align 8, !tbaa !102
  %25 = getelementptr inbounds nuw %struct.Gia_ParLlb_t_, ptr %24, i32 0, i32 12
  store i32 0, ptr %25, align 8, !tbaa !115
  %26 = load ptr, ptr %2, align 8, !tbaa !102
  %27 = getelementptr inbounds nuw %struct.Gia_ParLlb_t_, ptr %26, i32 0, i32 13
  store i32 0, ptr %27, align 4, !tbaa !116
  %28 = load ptr, ptr %2, align 8, !tbaa !102
  %29 = getelementptr inbounds nuw %struct.Gia_ParLlb_t_, ptr %28, i32 0, i32 14
  store i32 0, ptr %29, align 8, !tbaa !117
  %30 = load ptr, ptr %2, align 8, !tbaa !102
  %31 = getelementptr inbounds nuw %struct.Gia_ParLlb_t_, ptr %30, i32 0, i32 16
  store i32 0, ptr %31, align 8, !tbaa !118
  %32 = load ptr, ptr %2, align 8, !tbaa !102
  %33 = getelementptr inbounds nuw %struct.Gia_ParLlb_t_, ptr %32, i32 0, i32 17
  store i32 0, ptr %33, align 4, !tbaa !119
  %34 = load ptr, ptr %2, align 8, !tbaa !102
  %35 = getelementptr inbounds nuw %struct.Gia_ParLlb_t_, ptr %34, i32 0, i32 18
  store i32 0, ptr %35, align 8, !tbaa !120
  %36 = load ptr, ptr %2, align 8, !tbaa !102
  %37 = getelementptr inbounds nuw %struct.Gia_ParLlb_t_, ptr %36, i32 0, i32 21
  store i32 0, ptr %37, align 4, !tbaa !121
  %38 = load ptr, ptr %2, align 8, !tbaa !102
  %39 = getelementptr inbounds nuw %struct.Gia_ParLlb_t_, ptr %38, i32 0, i32 22
  store i32 0, ptr %39, align 8, !tbaa !122
  %40 = load ptr, ptr %2, align 8, !tbaa !102
  %41 = getelementptr inbounds nuw %struct.Gia_ParLlb_t_, ptr %40, i32 0, i32 23
  store i64 0, ptr %41, align 8, !tbaa !123
  %42 = load ptr, ptr %2, align 8, !tbaa !102
  %43 = getelementptr inbounds nuw %struct.Gia_ParLlb_t_, ptr %42, i32 0, i32 24
  store i32 -1, ptr %43, align 8, !tbaa !124
  ret void
}

; Function Attrs: nounwind uwtable
define void @Llb_ManMinCutTest(ptr noundef %0, i32 noundef %1) #0 {
  %3 = alloca ptr, align 8
  %4 = alloca i32, align 4
  %5 = alloca %struct.Gia_ParLlb_t_, align 8
  %6 = alloca ptr, align 8
  %7 = alloca ptr, align 8
  %8 = alloca ptr, align 8
  store ptr %0, ptr %3, align 8, !tbaa !3
  store i32 %1, ptr %4, align 4, !tbaa !10
  call void @llvm.lifetime.start.p0(i64 112, ptr %5) #10
  call void @llvm.lifetime.start.p0(i64 8, ptr %6) #10
  store ptr %5, ptr %6, align 8, !tbaa !102
  call void @llvm.lifetime.start.p0(i64 8, ptr %7) #10
  call void @llvm.lifetime.start.p0(i64 8, ptr %8) #10
  %9 = load ptr, ptr %6, align 8, !tbaa !102
  call void @Llb_BddSetDefaultParams(ptr noundef %9)
  %10 = load ptr, ptr %3, align 8, !tbaa !3
  %11 = call ptr @Aig_ManDupFlopsOnly(ptr noundef %10)
  store ptr %11, ptr %8, align 8, !tbaa !3
  %12 = load ptr, ptr %3, align 8, !tbaa !3
  call void @Aig_ManPrintStats(ptr noundef %12)
  %13 = load ptr, ptr %8, align 8, !tbaa !3
  call void @Aig_ManPrintStats(ptr noundef %13)
  %14 = load ptr, ptr %8, align 8, !tbaa !3
  call void @Aig_ManFanoutStart(ptr noundef %14)
  %15 = load ptr, ptr %8, align 8, !tbaa !3
  %16 = load i32, ptr %4, align 4, !tbaa !10
  %17 = call ptr @Llb_ManComputeCuts(ptr noundef %15, i32 noundef %16, i32 noundef 1, i32 noundef 0)
  store ptr %17, ptr %7, align 8, !tbaa !8
  %18 = load ptr, ptr %3, align 8, !tbaa !3
  %19 = load ptr, ptr %8, align 8, !tbaa !3
  %20 = load ptr, ptr %6, align 8, !tbaa !102
  %21 = load ptr, ptr %7, align 8, !tbaa !8
  %22 = call i32 @Llb_CoreExperiment(ptr noundef %18, ptr noundef %19, ptr noundef %20, ptr noundef %21, i64 noundef 0)
  %23 = load ptr, ptr %7, align 8, !tbaa !8
  call void @Vec_VecFree(ptr noundef %23)
  %24 = load ptr, ptr %8, align 8, !tbaa !3
  call void @Aig_ManFanoutStop(ptr noundef %24)
  %25 = load ptr, ptr %8, align 8, !tbaa !3
  call void @Aig_ManCleanMarkAB(ptr noundef %25)
  %26 = load ptr, ptr %8, align 8, !tbaa !3
  call void @Aig_ManStop(ptr noundef %26)
  call void @llvm.lifetime.end.p0(i64 8, ptr %8) #10
  call void @llvm.lifetime.end.p0(i64 8, ptr %7) #10
  call void @llvm.lifetime.end.p0(i64 8, ptr %6) #10
  call void @llvm.lifetime.end.p0(i64 112, ptr %5) #10
  ret void
}