; Function Attrs: nounwind uwtable
define void @Llb_ManMinCutTest(ptr noundef %0, i32 noundef %1) local_unnamed_addr #0 {
  %3 = alloca %struct.Gia_ParLlb_t_, align 8
  call void @llvm.lifetime.start.p0(i64 112, ptr nonnull %3) #22
  %4 = getelementptr inbounds nuw i8, ptr %3, i64 32
  call void @llvm.memset.p0.i64(ptr noundef nonnull align 8 dereferenceable(112) %4, i8 0, i64 80, i1 false)
  store i32 1000000, ptr %3, align 8, !tbaa !100
  %5 = getelementptr inbounds nuw i8, ptr %3, i64 4
  store i32 10000000, ptr %5, align 4, !tbaa !102
  %6 = getelementptr inbounds nuw i8, ptr %3, i64 8
  store i32 20, ptr %6, align 8, !tbaa !103
  %7 = getelementptr inbounds nuw i8, ptr %3, i64 12
  store i32 0, ptr %7, align 4, !tbaa !104
  %8 = getelementptr inbounds nuw i8, ptr %3, i64 16
  store i32 0, ptr %8, align 8, !tbaa !105
  %9 = getelementptr inbounds nuw i8, ptr %3, i64 20
  store i32 0, ptr %9, align 4, !tbaa !106
  %10 = getelementptr inbounds nuw i8, ptr %3, i64 24
  store i32 100, ptr %10, align 8, !tbaa !107
  %11 = getelementptr inbounds nuw i8, ptr %3, i64 28
  store i32 30, ptr %11, align 4, !tbaa !108
  %12 = getelementptr inbounds nuw i8, ptr %3, i64 40
  store i32 1, ptr %12, align 8, !tbaa !109
  %13 = getelementptr inbounds nuw i8, ptr %3, i64 44
  %14 = getelementptr inbounds nuw i8, ptr %3, i64 84
  store i32 0, ptr %14, align 4, !tbaa !111
  %15 = getelementptr inbounds nuw i8, ptr %3, i64 104
  call void @llvm.memset.p0.i64(ptr noundef nonnull align 4 dereferenceable(16) %13, i8 0, i64 16, i1 false)
  store i32 -1, ptr %15, align 8, !tbaa !113
  %16 = tail call ptr @Aig_ManDupFlopsOnly(ptr noundef %0) #22
  tail call void @Aig_ManPrintStats(ptr noundef %0) #22
  tail call void @Aig_ManPrintStats(ptr noundef %16) #22
  tail call void @Aig_ManFanoutStart(ptr noundef %16) #22
  %17 = tail call ptr @Llb_ManComputeCuts(ptr noundef %16, i32 noundef %1, i32 noundef 1, i32 noundef 0)
  %18 = call i32 @Llb_CoreExperiment(ptr noundef %0, ptr noundef %16, ptr noundef nonnull %3, ptr noundef %17, i64 noundef 0) #22
  %19 = getelementptr i8, ptr %17, i64 4
  %.val11.i = load i32, ptr %19, align 4, !tbaa !114
  %20 = icmp sgt i32 %.val11.i, 0
  br i1 %20, label %.lr.ph.i, label %.critedge.i

.lr.ph.i:                                         ; preds = %2
  %21 = getelementptr i8, ptr %17, i64 8
  br label %22

22:                                               ; preds = %29, %.lr.ph.i
  %.val14.i = phi i32 [ %.val11.i, %.lr.ph.i ], [ %.val.i, %29 ]
  %indvars.iv.i = phi i64 [ 0, %.lr.ph.i ], [ %indvars.iv.next.i, %29 ]
  %.val8.i = load ptr, ptr %21, align 8, !tbaa !116
  %23 = getelementptr inbounds nuw ptr, ptr %.val8.i, i64 %indvars.iv.i
  %24 = load ptr, ptr %23, align 8, !tbaa !11
  %.not.i = icmp eq ptr %24, null
  br i1 %.not.i, label %29, label %25

25:                                               ; preds = %22
  %26 = getelementptr inbounds nuw i8, ptr %24, i64 8
  %27 = load ptr, ptr %26, align 8, !tbaa !9
  %.not.i.i = icmp eq ptr %27, null
  br i1 %.not.i.i, label %Vec_PtrFree.exit.i, label %28

28:                                               ; preds = %25
  call void @free(ptr noundef nonnull %27) #22
  br label %Vec_PtrFree.exit.i

Vec_PtrFree.exit.i:                               ; preds = %28, %25
  call void @free(ptr noundef nonnull %24) #22
  %.val.pre.i = load i32, ptr %19, align 4, !tbaa !114
  br label %29

29:                                               ; preds = %Vec_PtrFree.exit.i, %22
  %.val.i = phi i32 [ %.val14.i, %22 ], [ %.val.pre.i, %Vec_PtrFree.exit.i ]
  %indvars.iv.next.i = add nuw nsw i64 %indvars.iv.i, 1
  %30 = sext i32 %.val.i to i64
  %31 = icmp slt i64 %indvars.iv.next.i, %30
  br i1 %31, label %22, label %.critedge.i, !llvm.loop !117

.critedge.i:                                      ; preds = %29, %2
  %32 = getelementptr inbounds nuw i8, ptr %17, i64 8
  %33 = load ptr, ptr %32, align 8, !tbaa !9
  %.not.i9.i = icmp eq ptr %33, null
  br i1 %.not.i9.i, label %Vec_VecFree.exit, label %34

34:                                               ; preds = %.critedge.i
  call void @free(ptr noundef nonnull %33) #22
  br label %Vec_VecFree.exit

Vec_VecFree.exit:                                 ; preds = %.critedge.i, %34
  call void @free(ptr noundef nonnull %17) #22
  call void @Aig_ManFanoutStop(ptr noundef %16) #22
  call void @Aig_ManCleanMarkAB(ptr noundef %16) #22
  call void @Aig_ManStop(ptr noundef %16) #22
  call void @llvm.lifetime.end.p0(i64 112, ptr nonnull %3) #22
  ret void
}